target datalayout = "e-m:e-p270:32:32-p271:32:32-p272:64:64-i64:64-i128:128-f80:128-n8:16:32:64-S128"
target triple = "x86_64-pc-linux-gnu"

%struct.anon = type { [4 x i8], ptr }
%struct.UDataInfo = type { i16, i16, i8, i8, i8, i8, [4 x i8], [4 x i8], [4 x i8] }

@.str = private unnamed_addr constant [82 x i8] c"udata_swap(): failure swapping data format %02x.%02x.%02x.%02x (\22%c%c%c%c\22) - %s\0A\00", align 1
@.str.1 = private unnamed_addr constant [102 x i8] c"udata_swap() warning: swapped only %d out of %d bytes - data format %02x.%02x.%02x.%02x (\22%c%c%c%c\22)\0A\00", align 1
@.str.2 = private unnamed_addr constant [68 x i8] c"udata_swap(): unknown data format %02x.%02x.%02x.%02x (\22%c%c%c%c\22)\0A\00", align 1

; Function Attrs: inlinehint mustprogress nounwind uwtable
define internal noundef signext i8 @_ZL9U_FAILURE10UErrorCode(i32 noundef %0) #2 {
  %2 = alloca i32, align 4
  store i32 %0, ptr %2, align 4, !tbaa !11
  %3 = load i32, ptr %2, align 4, !tbaa !11
  %4 = icmp sgt i32 %3, 0
  %5 = zext i1 %4 to i8
  ret i8 %5
}

; Function Attrs: mustprogress uwtable
define i32 @udata_swap(ptr noundef %0, ptr noundef %1, i32 noundef %2, ptr noundef %3, ptr noundef %4) #0 {
  %6 = alloca i32, align 4
  %7 = alloca ptr, align 8
  %8 = alloca ptr, align 8
  %9 = alloca i32, align 4
  %10 = alloca ptr, align 8
  %11 = alloca ptr, align 8
  %12 = alloca [4 x i8], align 1
  %13 = alloca ptr, align 8
  %14 = alloca i32, align 4
  %15 = alloca i32, align 4
  %16 = alloca i32, align 4
  %17 = alloca [4 x i16], align 2
  store ptr %0, ptr %7, align 8, !tbaa !3
  store ptr %1, ptr %8, align 8, !tbaa !8
  store i32 %2, ptr %9, align 4, !tbaa !9
  store ptr %3, ptr %10, align 8, !tbaa !8
  store ptr %4, ptr %11, align 8, !tbaa !8
  call void @llvm.lifetime.start.p0(i64 4, ptr %12) #6
  call void @llvm.lifetime.start.p0(i64 8, ptr %13) #6
  call void @llvm.lifetime.start.p0(i64 4, ptr %14) #6
  call void @llvm.lifetime.start.p0(i64 4, ptr %15) #6
  %18 = load ptr, ptr %11, align 8, !tbaa !8
  %19 = icmp eq ptr %18, null
  br i1 %19, label %25, label %20

20:                                               ; preds = %5
  %21 = load ptr, ptr %11, align 8, !tbaa !8
  %22 = load i32, ptr %21, align 4, !tbaa !11
  %23 = call noundef signext i8 @_ZL9U_FAILURE10UErrorCode(i32 noundef %22)
  %24 = icmp ne i8 %23, 0
  br i1 %24, label %25, label %26

25:                                               ; preds = %20, %5
  store i32 0, ptr %6, align 4
  store i32 1, ptr %16, align 4
  br label %227

26:                                               ; preds = %20
  %27 = load ptr, ptr %7, align 8, !tbaa !3
  %28 = load ptr, ptr %8, align 8, !tbaa !8
  %29 = load ptr, ptr %11, align 8, !tbaa !8
  %30 = call i32 @udata_swapDataHeader_77(ptr noundef %27, ptr noundef %28, i32 noundef -1, ptr noundef null, ptr noundef %29)
  %31 = load ptr, ptr %11, align 8, !tbaa !8
  %32 = load i32, ptr %31, align 4, !tbaa !11
  %33 = call noundef signext i8 @_ZL9U_FAILURE10UErrorCode(i32 noundef %32)
  %34 = icmp ne i8 %33, 0
  br i1 %34, label %35, label %36

35:                                               ; preds = %26
  store i32 0, ptr %6, align 4
  store i32 1, ptr %16, align 4
  br label %227

36:                                               ; preds = %26
  %37 = load ptr, ptr %8, align 8, !tbaa !8
  %38 = getelementptr inbounds i8, ptr %37, i64 4
  store ptr %38, ptr %13, align 8, !tbaa !8
  call void @llvm.lifetime.start.p0(i64 8, ptr %17) #6
  %39 = load ptr, ptr %13, align 8, !tbaa !8
  %40 = getelementptr inbounds nuw %struct.UDataInfo, ptr %39, i32 0, i32 6
  %41 = getelementptr inbounds [4 x i8], ptr %40, i64 0, i64 0
  %42 = load i8, ptr %41, align 2, !tbaa !13
  %43 = zext i8 %42 to i16
  store i16 %43, ptr %17, align 2, !tbaa !14
  %44 = getelementptr inbounds i16, ptr %17, i64 1
  %45 = load ptr, ptr %13, align 8, !tbaa !8
  %46 = getelementptr inbounds nuw %struct.UDataInfo, ptr %45, i32 0, i32 6
  %47 = getelementptr inbounds [4 x i8], ptr %46, i64 0, i64 1
  %48 = load i8, ptr %47, align 1, !tbaa !13
  %49 = zext i8 %48 to i16
  store i16 %49, ptr %44, align 2, !tbaa !14
  %50 = getelementptr inbounds i16, ptr %17, i64 2
  %51 = load ptr, ptr %13, align 8, !tbaa !8
  %52 = getelementptr inbounds nuw %struct.UDataInfo, ptr %51, i32 0, i32 6
  %53 = getelementptr inbounds [4 x i8], ptr %52, i64 0, i64 2
  %54 = load i8, ptr %53, align 2, !tbaa !13
  %55 = zext i8 %54 to i16
  store i16 %55, ptr %50, align 2, !tbaa !14
  %56 = getelementptr inbounds i16, ptr %17, i64 3
  %57 = load ptr, ptr %13, align 8, !tbaa !8
  %58 = getelementptr inbounds nuw %struct.UDataInfo, ptr %57, i32 0, i32 6
  %59 = getelementptr inbounds [4 x i8], ptr %58, i64 0, i64 3
  %60 = load i8, ptr %59, align 1, !tbaa !13
  %61 = zext i8 %60 to i16
  store i16 %61, ptr %56, align 2, !tbaa !14
  %62 = getelementptr inbounds [4 x i16], ptr %17, i64 0, i64 0
  %63 = call signext i8 @uprv_isInvariantUString_77(ptr noundef %62, i32 noundef 4)
  %64 = icmp ne i8 %63, 0
  br i1 %64, label %65, label %68

65:                                               ; preds = %36
  %66 = getelementptr inbounds [4 x i16], ptr %17, i64 0, i64 0
  %67 = getelementptr inbounds [4 x i8], ptr %12, i64 0, i64 0
  call void @u_UCharsToChars_77(ptr noundef %66, ptr noundef %67, i32 noundef 4)
  br label %73

68:                                               ; preds = %36
  %69 = getelementptr inbounds [4 x i8], ptr %12, i64 0, i64 3
  store i8 63, ptr %69, align 1, !tbaa !13
  %70 = getelementptr inbounds [4 x i8], ptr %12, i64 0, i64 2
  store i8 63, ptr %70, align 1, !tbaa !13
  %71 = getelementptr inbounds [4 x i8], ptr %12, i64 0, i64 1
  store i8 63, ptr %71, align 1, !tbaa !13
  %72 = getelementptr inbounds [4 x i8], ptr %12, i64 0, i64 0
  store i8 63, ptr %72, align 1, !tbaa !13
  br label %73

73:                                               ; preds = %68, %65
  call void @llvm.lifetime.end.p0(i64 8, ptr %17) #6
  store i32 0, ptr %14, align 4, !tbaa !9
  br label %74

74:                                               ; preds = %189, %73
  %75 = load i32, ptr %14, align 4, !tbaa !9
  %76 = icmp slt i32 %75, 19
  br i1 %76, label %77, label %192

77:                                               ; preds = %74
  %78 = load i32, ptr %14, align 4, !tbaa !9
  %79 = sext i32 %78 to i64
  %80 = getelementptr inbounds [19 x %struct.anon], ptr @_ZL7swapFns, i64 0, i64 %79
  %81 = getelementptr inbounds nuw %struct.anon, ptr %80, i32 0, i32 0
  %82 = getelementptr inbounds [4 x i8], ptr %81, i64 0, i64 0
  %83 = load ptr, ptr %13, align 8, !tbaa !8
  %84 = getelementptr inbounds nuw %struct.UDataInfo, ptr %83, i32 0, i32 6
  %85 = getelementptr inbounds [4 x i8], ptr %84, i64 0, i64 0
  %86 = call i32 @memcmp(ptr noundef %82, ptr noundef %85, i64 noundef 4) #7
  %87 = icmp eq i32 0, %86
  br i1 %87, label %88, label %188

88:                                               ; preds = %77
  %89 = load i32, ptr %14, align 4, !tbaa !9
  %90 = sext i32 %89 to i64
  %91 = getelementptr inbounds [19 x %struct.anon], ptr @_ZL7swapFns, i64 0, i64 %90
  %92 = getelementptr inbounds nuw %struct.anon, ptr %91, i32 0, i32 1
  %93 = load ptr, ptr %92, align 8, !tbaa !16
  %94 = load ptr, ptr %7, align 8, !tbaa !3
  %95 = load ptr, ptr %8, align 8, !tbaa !8
  %96 = load i32, ptr %9, align 4, !tbaa !9
  %97 = load ptr, ptr %10, align 8, !tbaa !8
  %98 = load ptr, ptr %11, align 8, !tbaa !8
  %99 = call noundef i32 %93(ptr noundef %94, ptr noundef %95, i32 noundef %96, ptr noundef %97, ptr noundef %98)
  store i32 %99, ptr %15, align 4, !tbaa !9
  %100 = load ptr, ptr %11, align 8, !tbaa !8
  %101 = load i32, ptr %100, align 4, !tbaa !11
  %102 = call noundef signext i8 @_ZL9U_FAILURE10UErrorCode(i32 noundef %101)
  %103 = icmp ne i8 %102, 0
  br i1 %103, label %104, label %141

104:                                              ; preds = %88
  %105 = load ptr, ptr %7, align 8, !tbaa !3
  %106 = load ptr, ptr %13, align 8, !tbaa !8
  %107 = getelementptr inbounds nuw %struct.UDataInfo, ptr %106, i32 0, i32 6
  %108 = getelementptr inbounds [4 x i8], ptr %107, i64 0, i64 0
  %109 = load i8, ptr %108, align 2, !tbaa !13
  %110 = zext i8 %109 to i32
  %111 = load ptr, ptr %13, align 8, !tbaa !8
  %112 = getelementptr inbounds nuw %struct.UDataInfo, ptr %111, i32 0, i32 6
  %113 = getelementptr inbounds [4 x i8], ptr %112, i64 0, i64 1
  %114 = load i8, ptr %113, align 1, !tbaa !13
  %115 = zext i8 %114 to i32
  %116 = load ptr, ptr %13, align 8, !tbaa !8
  %117 = getelementptr inbounds nuw %struct.UDataInfo, ptr %116, i32 0, i32 6
  %118 = getelementptr inbounds [4 x i8], ptr %117, i64 0, i64 2
  %119 = load i8, ptr %118, align 2, !tbaa !13
  %120 = zext i8 %119 to i32
  %121 = load ptr, ptr %13, align 8, !tbaa !8
  %122 = getelementptr inbounds nuw %struct.UDataInfo, ptr %121, i32 0, i32 6
  %123 = getelementptr inbounds [4 x i8], ptr %122, i64 0, i64 3
  %124 = load i8, ptr %123, align 1, !tbaa !13
  %125 = zext i8 %124 to i32
  %126 = getelementptr inbounds [4 x i8], ptr %12, i64 0, i64 0
  %127 = load i8, ptr %126, align 1, !tbaa !13
  %128 = sext i8 %127 to i32
  %129 = getelementptr inbounds [4 x i8], ptr %12, i64 0, i64 1
  %130 = load i8, ptr %129, align 1, !tbaa !13
  %131 = sext i8 %130 to i32
  %132 = getelementptr inbounds [4 x i8], ptr %12, i64 0, i64 2
  %133 = load i8, ptr %132, align 1, !tbaa !13
  %134 = sext i8 %133 to i32
  %135 = getelementptr inbounds [4 x i8], ptr %12, i64 0, i64 3
  %136 = load i8, ptr %135, align 1, !tbaa !13
  %137 = sext i8 %136 to i32
  %138 = load ptr, ptr %11, align 8, !tbaa !8
  %139 = load i32, ptr %138, align 4, !tbaa !11
  %140 = call ptr @u_errorName_77(i32 noundef %139)
  call void (ptr, ptr, ...) @udata_printError_77(ptr noundef %105, ptr noundef @.str, i32 noundef %110, i32 noundef %115, i32 noundef %120, i32 noundef %125, i32 noundef %128, i32 noundef %131, i32 noundef %134, i32 noundef %137, ptr noundef %140)
  br label %186

141:                                              ; preds = %88
  %142 = load i32, ptr %15, align 4, !tbaa !9
  %143 = load i32, ptr %9, align 4, !tbaa !9
  %144 = sub nsw i32 %143, 15
  %145 = icmp slt i32 %142, %144
  br i1 %145, label %146, label %185

146:                                              ; preds = %141
  %147 = load ptr, ptr %7, align 8, !tbaa !3
  %148 = load i32, ptr %15, align 4, !tbaa !9
  %149 = load i32, ptr %9, align 4, !tbaa !9
  %150 = load ptr, ptr %13, align 8, !tbaa !8
  %151 = getelementptr inbounds nuw %struct.UDataInfo, ptr %150, i32 0, i32 6
  %152 = getelementptr inbounds [4 x i8], ptr %151, i64 0, i64 0
  %153 = load i8, ptr %152, align 2, !tbaa !13
  %154 = zext i8 %153 to i32
  %155 = load ptr, ptr %13, align 8, !tbaa !8
  %156 = getelementptr inbounds nuw %struct.UDataInfo, ptr %155, i32 0, i32 6
  %157 = getelementptr inbounds [4 x i8], ptr %156, i64 0, i64 1
  %158 = load i8, ptr %157, align 1, !tbaa !13
  %159 = zext i8 %158 to i32
  %160 = load ptr, ptr %13, align 8, !tbaa !8
  %161 = getelementptr inbounds nuw %struct.UDataInfo, ptr %160, i32 0, i32 6
  %162 = getelementptr inbounds [4 x i8], ptr %161, i64 0, i64 2
  %163 = load i8, ptr %162, align 2, !tbaa !13
  %164 = zext i8 %163 to i32
  %165 = load ptr, ptr %13, align 8, !tbaa !8
  %166 = getelementptr inbounds nuw %struct.UDataInfo, ptr %165, i32 0, i32 6
  %167 = getelementptr inbounds [4 x i8], ptr %166, i64 0, i64 3
  %168 = load i8, ptr %167, align 1, !tbaa !13
  %169 = zext i8 %168 to i32
  %170 = getelementptr inbounds [4 x i8], ptr %12, i64 0, i64 0
  %171 = load i8, ptr %170, align 1, !tbaa !13
  %172 = sext i8 %171 to i32
  %173 = getelementptr inbounds [4 x i8], ptr %12, i64 0, i64 1
  %174 = load i8, ptr %173, align 1, !tbaa !13
  %175 = sext i8 %174 to i32
  %176 = getelementptr inbounds [4 x i8], ptr %12, i64 0, i64 2
  %177 = load i8, ptr %176, align 1, !tbaa !13
  %178 = sext i8 %177 to i32
  %179 = getelementptr inbounds [4 x i8], ptr %12, i64 0, i64 3
  %180 = load i8, ptr %179, align 1, !tbaa !13
  %181 = sext i8 %180 to i32
  %182 = load ptr, ptr %11, align 8, !tbaa !8
  %183 = load i32, ptr %182, align 4, !tbaa !11
  %184 = call ptr @u_errorName_77(i32 noundef %183)
  call void (ptr, ptr, ...) @udata_printError_77(ptr noundef %147, ptr noundef @.str.1, i32 noundef %148, i32 noundef %149, i32 noundef %154, i32 noundef %159, i32 noundef %164, i32 noundef %169, i32 noundef %172, i32 noundef %175, i32 noundef %178, i32 noundef %181, ptr noundef %184)
  br label %185

185:                                              ; preds = %146, %141
  br label %186

186:                                              ; preds = %185, %104
  %187 = load i32, ptr %15, align 4, !tbaa !9
  store i32 %187, ptr %6, align 4
  store i32 1, ptr %16, align 4
  br label %227

188:                                              ; preds = %77
  br label %189

189:                                              ; preds = %188
  %190 = load i32, ptr %14, align 4, !tbaa !9
  %191 = add nsw i32 %190, 1
  store i32 %191, ptr %14, align 4, !tbaa !9
  br label %74, !llvm.loop !18

192:                                              ; preds = %74
  %193 = load ptr, ptr %7, align 8, !tbaa !3
  %194 = load ptr, ptr %13, align 8, !tbaa !8
  %195 = getelementptr inbounds nuw %struct.UDataInfo, ptr %194, i32 0, i32 6
  %196 = getelementptr inbounds [4 x i8], ptr %195, i64 0, i64 0
  %197 = load i8, ptr %196, align 2, !tbaa !13
  %198 = zext i8 %197 to i32
  %199 = load ptr, ptr %13, align 8, !tbaa !8
  %200 = getelementptr inbounds nuw %struct.UDataInfo, ptr %199, i32 0, i32 6
  %201 = getelementptr inbounds [4 x i8], ptr %200, i64 0, i64 1
  %202 = load i8, ptr %201, align 1, !tbaa !13
  %203 = zext i8 %202 to i32
  %204 = load ptr, ptr %13, align 8, !tbaa !8
  %205 = getelementptr inbounds nuw %struct.UDataInfo, ptr %204, i32 0, i32 6
  %206 = getelementptr inbounds [4 x i8], ptr %205, i64 0, i64 2
  %207 = load i8, ptr %206, align 2, !tbaa !13
  %208 = zext i8 %207 to i32
  %209 = load ptr, ptr %13, align 8, !tbaa !8
  %210 = getelementptr inbounds nuw %struct.UDataInfo, ptr %209, i32 0, i32 6
  %211 = getelementptr inbounds [4 x i8], ptr %210, i64 0, i64 3
  %212 = load i8, ptr %211, align 1, !tbaa !13
  %213 = zext i8 %212 to i32
  %214 = getelementptr inbounds [4 x i8], ptr %12, i64 0, i64 0
  %215 = load i8, ptr %214, align 1, !tbaa !13
  %216 = sext i8 %215 to i32
  %217 = getelementptr inbounds [4 x i8], ptr %12, i64 0, i64 1
  %218 = load i8, ptr %217, align 1, !tbaa !13
  %219 = sext i8 %218 to i32
  %220 = getelementptr inbounds [4 x i8], ptr %12, i64 0, i64 2
  %221 = load i8, ptr %220, align 1, !tbaa !13
  %222 = sext i8 %221 to i32
  %223 = getelementptr inbounds [4 x i8], ptr %12, i64 0, i64 3
  %224 = load i8, ptr %223, align 1, !tbaa !13
  %225 = sext i8 %224 to i32
  call void (ptr, ptr, ...) @udata_printError_77(ptr noundef %193, ptr noundef @.str.2, i32 noundef %198, i32 noundef %203, i32 noundef %208, i32 noundef %213, i32 noundef %216, i32 noundef %219, i32 noundef %222, i32 noundef %225)
  %226 = load ptr, ptr %11, align 8, !tbaa !8
  store i32 16, ptr %226, align 4, !tbaa !11
  store i32 0, ptr %6, align 4
  store i32 1, ptr %16, align 4
  br label %227

227:                                              ; preds = %192, %186, %35, %25
  call void @llvm.lifetime.end.p0(i64 4, ptr %15) #6
  call void @llvm.lifetime.end.p0(i64 4, ptr %14) #6
  call void @llvm.lifetime.end.p0(i64 8, ptr %13) #6
  call void @llvm.lifetime.end.p0(i64 4, ptr %12) #6
  %228 = load i32, ptr %6, align 4
  ret i32 %228
}