; Function Attrs: mustprogress uwtable
define noundef i32 @udata_swap(ptr noundef %0, ptr noundef %1, i32 noundef %2, ptr noundef %3, ptr noundef %4) local_unnamed_addr #0 {
  %6 = alloca [4 x i8], align 4
  %7 = alloca [4 x i16], align 2
  call void @llvm.lifetime.start.p0(i64 4, ptr nonnull %6) #5
  %8 = icmp eq ptr %4, null
  br i1 %8, label %111, label %9

9:                                                ; preds = %5
  %10 = load i32, ptr %4, align 4, !tbaa !3
  %11 = icmp slt i32 %10, 1
  br i1 %11, label %12, label %111

12:                                               ; preds = %9
  %13 = tail call i32 @udata_swapDataHeader_77(ptr noundef %0, ptr noundef %1, i32 noundef -1, ptr noundef null, ptr noundef nonnull %4)
  %14 = load i32, ptr %4, align 4, !tbaa !3
  %15 = icmp slt i32 %14, 1
  br i1 %15, label %16, label %111

16:                                               ; preds = %12
  call void @llvm.lifetime.start.p0(i64 8, ptr nonnull %7) #5
  %17 = getelementptr inbounds nuw i8, ptr %1, i64 12
  %18 = load i8, ptr %17, align 2, !tbaa !7
  %19 = zext i8 %18 to i16
  store i16 %19, ptr %7, align 2, !tbaa !8
  %20 = getelementptr inbounds nuw i8, ptr %7, i64 2
  %21 = getelementptr inbounds nuw i8, ptr %1, i64 13
  %22 = load i8, ptr %21, align 1, !tbaa !7
  %23 = zext i8 %22 to i16
  store i16 %23, ptr %20, align 2, !tbaa !8
  %24 = getelementptr inbounds nuw i8, ptr %7, i64 4
  %25 = getelementptr inbounds nuw i8, ptr %1, i64 14
  %26 = load i8, ptr %25, align 2, !tbaa !7
  %27 = zext i8 %26 to i16
  store i16 %27, ptr %24, align 2, !tbaa !8
  %28 = getelementptr inbounds nuw i8, ptr %7, i64 6
  %29 = getelementptr inbounds nuw i8, ptr %1, i64 15
  %30 = load i8, ptr %29, align 1, !tbaa !7
  %31 = zext i8 %30 to i16
  store i16 %31, ptr %28, align 2, !tbaa !8
  %32 = call signext i8 @uprv_isInvariantUString_77(ptr noundef nonnull %7, i32 noundef 4)
  %.not49 = icmp eq i8 %32, 0
  br i1 %.not49, label %34, label %33

33:                                               ; preds = %16
  call void @u_UCharsToChars_77(ptr noundef nonnull %7, ptr noundef nonnull %6, i32 noundef 4)
  br label %35

34:                                               ; preds = %16
  store i32 1061109567, ptr %6, align 4
  br label %35

35:                                               ; preds = %34, %33
  call void @llvm.lifetime.end.p0(i64 8, ptr nonnull %7) #5
  br label %37

36:                                               ; preds = %37
  %indvars.iv.next = add nuw nsw i64 %indvars.iv, 1
  %exitcond.not = icmp eq i64 %indvars.iv.next, 19
  br i1 %exitcond.not, label %91, label %37, !llvm.loop !10

37:                                               ; preds = %35, %36
  %indvars.iv = phi i64 [ 0, %35 ], [ %indvars.iv.next, %36 ]
  %38 = getelementptr inbounds nuw [19 x %struct.anon], ptr @_ZL7swapFns, i64 0, i64 %indvars.iv
  %bcmp = call i32 @bcmp(ptr noundef nonnull dereferenceable(4) %38, ptr noundef nonnull dereferenceable(4) %17, i64 4)
  %39 = icmp eq i32 %bcmp, 0
  br i1 %39, label %40, label %36

40:                                               ; preds = %37
  %41 = getelementptr inbounds nuw i8, ptr %38, i64 8
  %42 = load ptr, ptr %41, align 8, !tbaa !12
  %43 = call noundef i32 %42(ptr noundef %0, ptr noundef nonnull %1, i32 noundef %2, ptr noundef %3, ptr noundef nonnull %4)
  %44 = load i32, ptr %4, align 4, !tbaa !3
  %45 = icmp slt i32 %44, 1
  br i1 %45, label %67, label %46

46:                                               ; preds = %40
  %47 = load i8, ptr %17, align 2, !tbaa !7
  %48 = zext i8 %47 to i32
  %49 = load i8, ptr %21, align 1, !tbaa !7
  %50 = zext i8 %49 to i32
  %51 = load i8, ptr %25, align 2, !tbaa !7
  %52 = zext i8 %51 to i32
  %53 = load i8, ptr %29, align 1, !tbaa !7
  %54 = zext i8 %53 to i32
  %55 = load i8, ptr %6, align 4, !tbaa !7
  %56 = sext i8 %55 to i32
  %57 = getelementptr inbounds nuw i8, ptr %6, i64 1
  %58 = load i8, ptr %57, align 1, !tbaa !7
  %59 = sext i8 %58 to i32
  %60 = getelementptr inbounds nuw i8, ptr %6, i64 2
  %61 = load i8, ptr %60, align 2, !tbaa !7
  %62 = sext i8 %61 to i32
  %63 = getelementptr inbounds nuw i8, ptr %6, i64 3
  %64 = load i8, ptr %63, align 1, !tbaa !7
  %65 = sext i8 %64 to i32
  %66 = call ptr @u_errorName_77(i32 noundef %44)
  call void (ptr, ptr, ...) @udata_printError_77(ptr noundef %0, ptr noundef nonnull @.str, i32 noundef %48, i32 noundef %50, i32 noundef %52, i32 noundef %54, i32 noundef %56, i32 noundef %59, i32 noundef %62, i32 noundef %65, ptr noundef %66)
  br label %111

67:                                               ; preds = %40
  %68 = add nsw i32 %2, -15
  %69 = icmp slt i32 %43, %68
  br i1 %69, label %70, label %111

70:                                               ; preds = %67
  %71 = load i8, ptr %17, align 2, !tbaa !7
  %72 = zext i8 %71 to i32
  %73 = load i8, ptr %21, align 1, !tbaa !7
  %74 = zext i8 %73 to i32
  %75 = load i8, ptr %25, align 2, !tbaa !7
  %76 = zext i8 %75 to i32
  %77 = load i8, ptr %29, align 1, !tbaa !7
  %78 = zext i8 %77 to i32
  %79 = load i8, ptr %6, align 4, !tbaa !7
  %80 = sext i8 %79 to i32
  %81 = getelementptr inbounds nuw i8, ptr %6, i64 1
  %82 = load i8, ptr %81, align 1, !tbaa !7
  %83 = sext i8 %82 to i32
  %84 = getelementptr inbounds nuw i8, ptr %6, i64 2
  %85 = load i8, ptr %84, align 2, !tbaa !7
  %86 = sext i8 %85 to i32
  %87 = getelementptr inbounds nuw i8, ptr %6, i64 3
  %88 = load i8, ptr %87, align 1, !tbaa !7
  %89 = sext i8 %88 to i32
  %90 = call ptr @u_errorName_77(i32 noundef %44)
  call void (ptr, ptr, ...) @udata_printError_77(ptr noundef %0, ptr noundef nonnull @.str.1, i32 noundef %43, i32 noundef %2, i32 noundef %72, i32 noundef %74, i32 noundef %76, i32 noundef %78, i32 noundef %80, i32 noundef %83, i32 noundef %86, i32 noundef %89, ptr noundef %90)
  br label %111

91:                                               ; preds = %36
  %92 = load i8, ptr %17, align 2, !tbaa !7
  %93 = zext i8 %92 to i32
  %94 = load i8, ptr %21, align 1, !tbaa !7
  %95 = zext i8 %94 to i32
  %96 = load i8, ptr %25, align 2, !tbaa !7
  %97 = zext i8 %96 to i32
  %98 = load i8, ptr %29, align 1, !tbaa !7
  %99 = zext i8 %98 to i32
  %100 = load i8, ptr %6, align 4, !tbaa !7
  %101 = sext i8 %100 to i32
  %102 = getelementptr inbounds nuw i8, ptr %6, i64 1
  %103 = load i8, ptr %102, align 1, !tbaa !7
  %104 = sext i8 %103 to i32
  %105 = getelementptr inbounds nuw i8, ptr %6, i64 2
  %106 = load i8, ptr %105, align 2, !tbaa !7
  %107 = sext i8 %106 to i32
  %108 = getelementptr inbounds nuw i8, ptr %6, i64 3
  %109 = load i8, ptr %108, align 1, !tbaa !7
  %110 = sext i8 %109 to i32
  call void (ptr, ptr, ...) @udata_printError_77(ptr noundef %0, ptr noundef nonnull @.str.2, i32 noundef %93, i32 noundef %95, i32 noundef %97, i32 noundef %99, i32 noundef %101, i32 noundef %104, i32 noundef %107, i32 noundef %110)
  store i32 16, ptr %4, align 4, !tbaa !3
  br label %111

111:                                              ; preds = %46, %70, %67, %12, %5, %9, %91
  %.0 = phi i32 [ 0, %91 ], [ 0, %9 ], [ 0, %5 ], [ 0, %12 ], [ %43, %67 ], [ %43, %70 ], [ %43, %46 ]
  call void @llvm.lifetime.end.p0(i64 4, ptr nonnull %6) #5
  ret i32 %.0
}